target datalayout = "e-m:e-p270:32:32-p271:32:32-p272:64:64-i64:64-i128:128-f80:128-n8:16:32:64-S128"
target triple = "x86_64-pc-linux-gnu"

; Function Attrs: nounwind sspstrong uwtable
define internal i64 @fun_sio_to_gb18030(ptr noundef %0, ptr noundef %1, i64 noundef %2, i64 noundef %3, ptr noundef %4, i64 noundef %5) #0 {
  %7 = alloca i64, align 8
  %8 = alloca ptr, align 8
  %9 = alloca ptr, align 8
  %10 = alloca i64, align 8
  %11 = alloca i64, align 8
  %12 = alloca ptr, align 8
  %13 = alloca i64, align 8
  %14 = alloca i32, align 4
  %15 = alloca i32, align 4
  %16 = alloca i32, align 4
  store ptr %0, ptr %8, align 8, !tbaa !6
  store ptr %1, ptr %9, align 8, !tbaa !10
  store i64 %2, ptr %10, align 8, !tbaa !12
  store i64 %3, ptr %11, align 8, !tbaa !12
  store ptr %4, ptr %12, align 8, !tbaa !10
  store i64 %5, ptr %13, align 8, !tbaa !12
  call void @llvm.lifetime.start.p0(i64 4, ptr %14) #3
  %17 = load i64, ptr %11, align 8, !tbaa !12
  %18 = lshr i64 %17, 8
  %19 = trunc i64 %18 to i32
  store i32 %19, ptr %14, align 4, !tbaa !15
  call void @llvm.lifetime.start.p0(i64 4, ptr %15) #3
  %20 = load ptr, ptr %9, align 8, !tbaa !10
  %21 = getelementptr inbounds i8, ptr %20, i64 0
  %22 = load i8, ptr %21, align 1, !tbaa !14
  %23 = zext i8 %22 to i32
  %24 = and i32 %23, 15
  %25 = shl i32 %24, 12
  %26 = load ptr, ptr %9, align 8, !tbaa !10
  %27 = getelementptr inbounds i8, ptr %26, i64 1
  %28 = load i8, ptr %27, align 1, !tbaa !14
  %29 = zext i8 %28 to i32
  %30 = and i32 %29, 63
  %31 = shl i32 %30, 6
  %32 = or i32 %25, %31
  %33 = load ptr, ptr %9, align 8, !tbaa !10
  %34 = getelementptr inbounds i8, ptr %33, i64 2
  %35 = load i8, ptr %34, align 1, !tbaa !14
  %36 = zext i8 %35 to i32
  %37 = and i32 %36, 63
  %38 = or i32 %32, %37
  store i32 %38, ptr %15, align 4, !tbaa !15
  %39 = load i32, ptr %14, align 4, !tbaa !15
  %40 = and i32 %39, 131072
  %41 = icmp ne i32 %40, 0
  br i1 %41, label %42, label %84

42:                                               ; preds = %6
  %43 = load i32, ptr %14, align 4, !tbaa !15
  %44 = add i32 %43, 1507328
  %45 = load i32, ptr %15, align 4, !tbaa !15
  %46 = add i32 %45, %44
  store i32 %46, ptr %15, align 4, !tbaa !15
  %47 = load i32, ptr %15, align 4, !tbaa !15
  %48 = sub i32 %47, 1688980
  store i32 %48, ptr %15, align 4, !tbaa !15
  %49 = load i32, ptr %15, align 4, !tbaa !15
  %50 = add i32 %49, 2
  store i32 %50, ptr %15, align 4, !tbaa !15
  %51 = load i32, ptr %15, align 4, !tbaa !15
  %52 = urem i32 %51, 10
  %53 = add i32 48, %52
  %54 = trunc i32 %53 to i8
  %55 = load ptr, ptr %12, align 8, !tbaa !10
  %56 = getelementptr inbounds i8, ptr %55, i64 3
  store i8 %54, ptr %56, align 1, !tbaa !14
  %57 = load i32, ptr %15, align 4, !tbaa !15
  %58 = udiv i32 %57, 10
  store i32 %58, ptr %15, align 4, !tbaa !15
  %59 = load i32, ptr %15, align 4, !tbaa !15
  %60 = add i32 %59, 50
  store i32 %60, ptr %15, align 4, !tbaa !15
  %61 = load i32, ptr %15, align 4, !tbaa !15
  %62 = urem i32 %61, 126
  %63 = add i32 129, %62
  %64 = trunc i32 %63 to i8
  %65 = load ptr, ptr %12, align 8, !tbaa !10
  %66 = getelementptr inbounds i8, ptr %65, i64 2
  store i8 %64, ptr %66, align 1, !tbaa !14
  %67 = load i32, ptr %15, align 4, !tbaa !15
  %68 = udiv i32 %67, 126
  store i32 %68, ptr %15, align 4, !tbaa !15
  %69 = load i32, ptr %15, align 4, !tbaa !15
  %70 = add i32 %69, 1
  store i32 %70, ptr %15, align 4, !tbaa !15
  %71 = load i32, ptr %15, align 4, !tbaa !15
  %72 = urem i32 %71, 10
  %73 = add i32 48, %72
  %74 = trunc i32 %73 to i8
  %75 = load ptr, ptr %12, align 8, !tbaa !10
  %76 = getelementptr inbounds i8, ptr %75, i64 1
  store i8 %74, ptr %76, align 1, !tbaa !14
  %77 = load i32, ptr %15, align 4, !tbaa !15
  %78 = udiv i32 %77, 10
  store i32 %78, ptr %15, align 4, !tbaa !15
  %79 = load i32, ptr %15, align 4, !tbaa !15
  %80 = add i32 129, %79
  %81 = trunc i32 %80 to i8
  %82 = load ptr, ptr %12, align 8, !tbaa !10
  %83 = getelementptr inbounds i8, ptr %82, i64 0
  store i8 %81, ptr %83, align 1, !tbaa !14
  store i64 4, ptr %7, align 8
  store i32 1, ptr %16, align 4
  br label %99

84:                                               ; preds = %6
  %85 = load i32, ptr %14, align 4, !tbaa !15
  %86 = sub i32 %85, 24055
  %87 = load i32, ptr %15, align 4, !tbaa !15
  %88 = add i32 %87, %86
  store i32 %88, ptr %15, align 4, !tbaa !15
  %89 = load i32, ptr %15, align 4, !tbaa !15
  %90 = urem i32 %89, 256
  %91 = trunc i32 %90 to i8
  %92 = load ptr, ptr %12, align 8, !tbaa !10
  %93 = getelementptr inbounds i8, ptr %92, i64 1
  store i8 %91, ptr %93, align 1, !tbaa !14
  %94 = load i32, ptr %15, align 4, !tbaa !15
  %95 = udiv i32 %94, 256
  %96 = trunc i32 %95 to i8
  %97 = load ptr, ptr %12, align 8, !tbaa !10
  %98 = getelementptr inbounds i8, ptr %97, i64 0
  store i8 %96, ptr %98, align 1, !tbaa !14
  store i64 2, ptr %7, align 8
  store i32 1, ptr %16, align 4
  br label %99

99:                                               ; preds = %84, %42
  call void @llvm.lifetime.end.p0(i64 4, ptr %15) #3
  call void @llvm.lifetime.end.p0(i64 4, ptr %14) #3
  %100 = load i64, ptr %7, align 8
  ret i64 %100
}