; Function Attrs: mustprogress nofree norecurse nosync nounwind sspstrong willreturn memory(argmem: readwrite) uwtable
define internal range(i64 2, 5) i64 @fun_sio_to_gb18030(ptr readnone captures(none) %0, ptr noundef readonly captures(none) %1, i64 %2, i64 noundef %3, ptr noundef writeonly captures(none) initializes((0, 2)) %4, i64 %5) #2 {
  %7 = lshr i64 %3, 8
  %8 = trunc i64 %7 to i32
  %9 = load i8, ptr %1, align 1, !tbaa !6
  %10 = and i8 %9, 15
  %11 = zext nneg i8 %10 to i32
  %12 = shl nuw nsw i32 %11, 12
  %13 = getelementptr inbounds nuw i8, ptr %1, i64 1
  %14 = load i8, ptr %13, align 1, !tbaa !6
  %15 = and i8 %14, 63
  %16 = zext nneg i8 %15 to i32
  %17 = shl nuw nsw i32 %16, 6
  %18 = or disjoint i32 %17, %12
  %19 = getelementptr inbounds nuw i8, ptr %1, i64 2
  %20 = load i8, ptr %19, align 1, !tbaa !6
  %21 = and i8 %20, 63
  %22 = zext nneg i8 %21 to i32
  %23 = or disjoint i32 %18, %22
  %24 = and i32 %8, 131072
  %.not = icmp eq i32 %24, 0
  br i1 %.not, label %45, label %25

25:                                               ; preds = %6
  %26 = add i32 %8, -181650
  %27 = add i32 %26, %23
  %28 = urem i32 %27, 10
  %29 = trunc nuw nsw i32 %28 to i8
  %30 = or disjoint i8 %29, 48
  %31 = getelementptr inbounds nuw i8, ptr %4, i64 3
  store i8 %30, ptr %31, align 1, !tbaa !6
  %32 = udiv i32 %27, 10
  %33 = add nuw nsw i32 %32, 50
  %34 = urem i32 %33, 126
  %35 = trunc nuw nsw i32 %34 to i8
  %36 = add nuw nsw i8 %35, -127
  %37 = getelementptr inbounds nuw i8, ptr %4, i64 2
  store i8 %36, ptr %37, align 1, !tbaa !6
  %38 = udiv i32 %33, 126
  %39 = add nuw nsw i32 %38, 1
  %40 = urem i32 %39, 10
  %41 = trunc nuw nsw i32 %40 to i8
  %42 = or disjoint i8 %41, 48
  %43 = udiv i32 %39, 10
  %44 = add nuw nsw i32 %43, 129
  br label %50

45:                                               ; preds = %6
  %46 = add i32 %8, -24055
  %47 = add i32 %46, %23
  %48 = trunc i32 %47 to i8
  %49 = lshr i32 %47, 8
  br label %50

50:                                               ; preds = %45, %25
  %.sink = phi i8 [ %48, %45 ], [ %42, %25 ]
  %storemerge.in = phi i32 [ %49, %45 ], [ %44, %25 ]
  %.0 = phi i64 [ 2, %45 ], [ 4, %25 ]
  %51 = getelementptr inbounds nuw i8, ptr %4, i64 1
  store i8 %.sink, ptr %51, align 1, !tbaa !6
  %storemerge = trunc i32 %storemerge.in to i8
  store i8 %storemerge, ptr %4, align 1, !tbaa !6
  ret i64 %.0
}